; ModuleID = '37/376.c'
source_filename = "37/376.c"
target datalayout = "e-m:e-p270:32:32-p271:32:32-p272:64:64-i64:64-f80:128-n8:16:32:64-S128"
target triple = "x86_64-pc-linux-gnu"

@.str = private unnamed_addr constant [3 x i8] c"%d\00", align 1
@.str.1 = private unnamed_addr constant [4 x i8] c"%c\0A\00", align 1
@.str.2 = private unnamed_addr constant [4 x i8] c"no\0A\00", align 1

; Function Attrs: noinline nounwind uwtable
define dso_local void @main() #0 {
  %1 = alloca i32, align 4
  %2 = alloca i32, align 4
  %3 = alloca i32, align 4
  %4 = alloca i32, align 4
  %5 = alloca i32, align 4
  %6 = alloca i32, align 4
  %7 = alloca [100 x i8]*, align 8
  %8 = alloca i8, align 1
  %9 = call i32 (i8*, ...) @__isoc99_scanf(i8* getelementptr inbounds ([3 x i8], [3 x i8]* @.str, i64 0, i64 0), i32* %4)
  %10 = call i32 (i8*, ...) @__isoc99_scanf(i8* getelementptr inbounds ([3 x i8], [3 x i8]* @.str, i64 0, i64 0), i32* %4)
  %11 = load i32, i32* %4, align 4
  %12 = sext i32 %11 to i64
  %13 = mul i64 1, %12
  %14 = call noalias i8* @malloc(i64 %13) #3
  %15 = bitcast i8* %14 to [100 x i8]*
  store [100 x i8]* %15, [100 x i8]** %7, align 8
  store i32 0, i32* %1, align 4
  br label %16

16:                                               ; preds = %27, %0
  %17 = load i32, i32* %1, align 4
  %18 = load i32, i32* %4, align 4
  %19 = icmp slt i32 %17, %18
  br i1 %19, label %20, label %30

20:                                               ; preds = %16
  %21 = load [100 x i8]*, [100 x i8]** %7, align 8
  %22 = load i32, i32* %1, align 4
  %23 = sext i32 %22 to i64
  %24 = getelementptr inbounds [100 x i8], [100 x i8]* %21, i64 %23
  %25 = getelementptr inbounds [100 x i8], [100 x i8]* %24, i64 0, i64 0
  %26 = call i32 (i8*, ...) bitcast (i32 (...)* @gets to i32 (i8*, ...)*)(i8* %25)
  br label %27

27:                                               ; preds = %20
  %28 = load i32, i32* %1, align 4
  %29 = add nsw i32 %28, 1
  store i32 %29, i32* %1, align 4
  br label %16

30:                                               ; preds = %16
  store i32 0, i32* %1, align 4
  br label %31

31:                                               ; preds = %111, %30
  %32 = load i32, i32* %1, align 4
  %33 = load i32, i32* %4, align 4
  %34 = icmp slt i32 %32, %33
  br i1 %34, label %35, label %114

35:                                               ; preds = %31
  store i32 0, i32* %6, align 4
  store i32 0, i32* %2, align 4
  br label %36

36:                                               ; preds = %102, %35
  %37 = load [100 x i8]*, [100 x i8]** %7, align 8
  %38 = load i32, i32* %1, align 4
  %39 = sext i32 %38 to i64
  %40 = getelementptr inbounds [100 x i8], [100 x i8]* %37, i64 %39
  %41 = getelementptr inbounds [100 x i8], [100 x i8]* %40, i64 0, i64 0
  %42 = load i32, i32* %2, align 4
  %43 = sext i32 %42 to i64
  %44 = getelementptr inbounds i8, i8* %41, i64 %43
  %45 = load i8, i8* %44, align 1
  %46 = sext i8 %45 to i32
  %47 = icmp ne i32 %46, 0
  br i1 %47, label %48, label %105

48:                                               ; preds = %36
  store i32 0, i32* %5, align 4
  %49 = load [100 x i8]*, [100 x i8]** %7, align 8
  %50 = load i32, i32* %1, align 4
  %51 = sext i32 %50 to i64
  %52 = getelementptr inbounds [100 x i8], [100 x i8]* %49, i64 %51
  %53 = getelementptr inbounds [100 x i8], [100 x i8]* %52, i64 0, i64 0
  %54 = load i32, i32* %2, align 4
  %55 = sext i32 %54 to i64
  %56 = getelementptr inbounds i8, i8* %53, i64 %55
  %57 = load i8, i8* %56, align 1
  store i8 %57, i8* %8, align 1
  store i32 0, i32* %3, align 4
  br label %58

58:                                               ; preds = %91, %48
  %59 = load [100 x i8]*, [100 x i8]** %7, align 8
  %60 = load i32, i32* %1, align 4
  %61 = sext i32 %60 to i64
  %62 = getelementptr inbounds [100 x i8], [100 x i8]* %59, i64 %61
  %63 = getelementptr inbounds [100 x i8], [100 x i8]* %62, i64 0, i64 0
  %64 = load i32, i32* %3, align 4
  %65 = sext i32 %64 to i64
  %66 = getelementptr inbounds i8, i8* %63, i64 %65
  %67 = load i8, i8* %66, align 1
  %68 = sext i8 %67 to i32
  %69 = icmp ne i32 %68, 0
  br i1 %69, label %70, label %94

70:                                               ; preds = %58
  %71 = load i8, i8* %8, align 1
  %72 = sext i8 %71 to i32
  %73 = load [100 x i8]*, [100 x i8]** %7, align 8
  %74 = load i32, i32* %1, align 4
  %75 = sext i32 %74 to i64
  %76 = getelementptr inbounds [100 x i8], [100 x i8]* %73, i64 %75
  %77 = getelementptr inbounds [100 x i8], [100 x i8]* %76, i64 0, i64 0
  %78 = load i32, i32* %3, align 4
  %79 = sext i32 %78 to i64
  %80 = getelementptr inbounds i8, i8* %77, i64 %79
  %81 = load i8, i8* %80, align 1
  %82 = sext i8 %81 to i32
  %83 = icmp ne i32 %72, %82
  br i1 %83, label %88, label %84

84:                                               ; preds = %70
  %85 = load i32, i32* %3, align 4
  %86 = load i32, i32* %2, align 4
  %87 = icmp eq i32 %85, %86
  br i1 %87, label %88, label %89

88:                                               ; preds = %84, %70
  store i32 0, i32* %5, align 4
  br label %90

89:                                               ; preds = %84
  store i32 1, i32* %5, align 4
  br label %94

90:                                               ; preds = %88
  br label %91

91:                                               ; preds = %90
  %92 = load i32, i32* %3, align 4
  %93 = add nsw i32 %92, 1
  store i32 %93, i32* %3, align 4
  br label %58

94:                                               ; preds = %89, %58
  %95 = load i32, i32* %5, align 4
  %96 = icmp eq i32 %95, 0
  br i1 %96, label %97, label %101

97:                                               ; preds = %94
  %98 = load i8, i8* %8, align 1
  %99 = sext i8 %98 to i32
  %100 = call i32 (i8*, ...) @printf(i8* getelementptr inbounds ([4 x i8], [4 x i8]* @.str.1, i64 0, i64 0), i32 %99)
  store i32 1, i32* %6, align 4
  br label %105

101:                                              ; preds = %94
  br label %102

102:                                              ; preds = %101
  %103 = load i32, i32* %2, align 4
  %104 = add nsw i32 %103, 1
  store i32 %104, i32* %2, align 4
  br label %36

105:                                              ; preds = %97, %36
  %106 = load i32, i32* %6, align 4
  %107 = icmp eq i32 %106, 0
  br i1 %107, label %108, label %110

108:                                              ; preds = %105
  %109 = call i32 (i8*, ...) @printf(i8* getelementptr inbounds ([4 x i8], [4 x i8]* @.str.2, i64 0, i64 0))
  br label %110

110:                                              ; preds = %108, %105
  br label %111

111:                                              ; preds = %110
  %112 = load i32, i32* %1, align 4
  %113 = add nsw i32 %112, 1
  store i32 %113, i32* %1, align 4
  br label %31

114:                                              ; preds = %31
  ret void
}

declare dso_local i32 @__isoc99_scanf(i8*, ...) #1

; Function Attrs: nounwind
declare dso_local noalias i8* @malloc(i64) #2

declare dso_local i32 @gets(...) #1

declare dso_local i32 @printf(i8*, ...) #1


!llvm.module.flags = !{!0}
!llvm.ident = !{!1}

!0 = !{i32 1, !"wchar_size", i32 4}
!1 = !{!"clang version 10.0.0-4ubuntu1 "}
